; Function Attrs: nounwind uwtable
define dso_local ptr @PyObject_CallFunction(ptr noundef %0, ptr noundef %1, ...) local_unnamed_addr #0 {
  %3 = alloca [1 x %struct.__va_list_tag], align 16
  call void @llvm.lifetime.start.p0(i64 24, ptr nonnull %3) #10
  %4 = tail call align 8 ptr @llvm.threadlocal.address.p0(ptr align 8 @_Py_tss_tstate)
  %5 = load ptr, ptr %4, align 8, !tbaa !25
  call void @llvm.va_start.p0(ptr nonnull %3)
  %6 = call fastcc ptr @_PyObject_CallFunctionVa(ptr noundef %5, ptr noundef %0, ptr noundef %1, ptr noundef %3)
  call void @llvm.va_end.p0(ptr nonnull %3)
  call void @llvm.lifetime.end.p0(i64 24, ptr nonnull %3) #10
  ret ptr %6
}